Certificate:
    Data:
        Version: 3 (0x2)
        Serial Number:
            6f:14:a0:4d:89:5e:f6:17:60:e8:8e:ea:70:cf:00:85
    Signature Algorithm: sha256WithRSAEncryption
        Issuer: CN=matooa-ca
        Validity
            Not Before: Mar 13 15:54:57 2019 GMT
            Not After : Feb 25 15:54:57 2022 GMT
        Subject: CN=matooa-client
        Subject Public Key Info:
            Public Key Algorithm: rsaEncryption
                Public-Key: (2048 bit)
                Modulus:
                    00:b8:d2:54:7b:2f:fd:0e:61:64:37:b0:1f:60:18:
                    3b:cd:6f:28:e4:85:01:c8:a1:b2:45:c4:91:47:a4:
                    01:60:75:65:d1:71:db:e0:47:be:54:d4:2a:28:94:
                    5d:34:2d:5d:1e:c2:13:9f:20:01:a9:13:41:8f:ff:
                    16:43:f3:68:eb:19:27:44:fe:e5:01:46:16:d4:e2:
                    76:00:a8:38:f8:df:f7:77:52:9b:97:a9:58:37:3a:
                    8d:6f:13:f7:a6:58:35:1b:19:12:51:3c:eb:9c:dc:
                    d1:70:61:13:24:58:dc:2d:30:a8:04:f8:51:51:0e:
                    9a:99:63:e1:83:df:88:1c:f1:8c:14:b9:5d:aa:85:
                    9d:72:2e:2e:ee:57:59:ab:21:f9:73:ee:41:1a:b2:
                    aa:06:ec:b4:72:32:7c:2c:21:40:e3:46:31:0f:52:
                    72:a9:36:58:92:eb:21:a3:62:18:3c:91:04:6d:a5:
                    98:72:70:e0:49:ff:a7:55:4b:50:cc:e1:ba:b5:ec:
                    87:31:88:f6:7e:d2:f3:3d:28:74:74:83:81:0c:9e:
                    03:2d:da:62:3f:a4:e6:bd:ef:60:cf:6e:4b:8d:51:
                    0e:8b:f5:0d:d7:45:72:06:30:dd:ae:7c:9d:54:8c:
                    01:30:66:5c:cb:c5:89:5b:b8:41:53:62:47:67:6d:
                    c0:c3
                Exponent: 65537 (0x10001)
        X509v3 extensions:
            X509v3 Basic Constraints: 
                CA:FALSE
            X509v3 Subject Key Identifier: 
                73:EE:48:D1:08:9F:04:5D:E7:4B:8C:07:0F:45:08:FB:CC:AF:8F:86
            X509v3 Authority Key Identifier: 
                keyid:EA:F9:55:89:58:F7:B6:FC:E6:67:92:E1:23:15:2A:EF:53:19:DA:16
                DirName:/CN=matooa-ca
                serial:D1:6B:9E:1C:18:3B:40:F3

            X509v3 Extended Key Usage: 
                TLS Web Client Authentication
            X509v3 Key Usage: 
                Digital Signature
    Signature Algorithm: sha256WithRSAEncryption
         77:35:33:85:06:47:2a:3e:3d:cf:a8:a2:4d:d4:4f:0a:b2:f0:
         fa:0a:ad:6b:88:28:2d:ce:ec:de:b7:3f:2d:02:0d:98:d2:6d:
         84:1c:25:63:36:91:38:af:18:51:c9:dc:63:0d:77:15:ae:88:
         60:98:c0:a8:e2:60:91:b7:34:da:d2:8f:16:f7:54:37:2b:3f:
         25:fd:47:9d:89:60:e2:9f:11:ef:eb:d9:2d:87:80:9d:02:0f:
         8e:78:83:94:98:14:83:67:dc:6e:9c:05:54:4c:62:55:0b:aa:
         b7:8d:70:d3:14:e0:25:ed:f9:21:d9:47:36:ba:92:0c:33:33:
         d0:b5:ac:97:e0:93:fd:2c:de:7f:b6:03:d4:b1:fd:b3:b6:67:
         7e:0e:fb:cd:21:18:05:4b:d5:32:c5:fc:f6:b0:a3:bc:9b:f8:
         c6:73:87:6f:ae:f0:3f:ed:b7:8c:da:63:ea:ec:23:36:fc:aa:
         fb:ee:9f:12:70:02:74:6e:2b:d4:ec:4e:f0:b8:08:b1:9f:22:
         df:9a:fe:5d:ee:ef:36:cc:70:8b:db:24:50:f3:01:6d:f9:cc:
         32:e3:a3:5c:28:74:af:db:45:6b:e7:35:a9:6e:3a:4f:a9:39:
         2b:ff:61:3e:e8:93:9f:8b:9d:77:6a:31:bb:53:65:2a:89:b9:
         e3:b7:21:4d
-----BEGIN CERTIFICATE-----
MIIDTDCCAjSgAwIBAgIQbxSgTYle9hdg6I7qcM8AhTANBgkqhkiG9w0BAQsFADAU
MRIwEAYDVQQDDAltYXRvb2EtY2EwHhcNMTkwMzEzMTU1NDU3WhcNMjIwMjI1MTU1
NDU3WjAYMRYwFAYDVQQDDA1tYXRvb2EtY2xpZW50MIIBIjANBgkqhkiG9w0BAQEF
AAOCAQ8AMIIBCgKCAQEAuNJUey/9DmFkN7AfYBg7zW8o5IUByKGyRcSRR6QBYHVl
0XHb4Ee+VNQqKJRdNC1dHsITnyABqRNBj/8WQ/No6xknRP7lAUYW1OJ2AKg4+N/3
d1Kbl6lYNzqNbxP3plg1GxkSUTzrnNzRcGETJFjcLTCoBPhRUQ6amWPhg9+IHPGM
FLldqoWdci4u7ldZqyH5c+5BGrKqBuy0cjJ8LCFA40YxD1JyqTZYkusho2IYPJEE
baWYcnDgSf+nVUtQzOG6teyHMYj2ftLzPSh0dIOBDJ4DLdpiP6Tmve9gz25LjVEO
i/UN10VyBjDdrnydVIwBMGZcy8WJW7hBU2JHZ23AwwIDAQABo4GVMIGSMAkGA1Ud
EwQCMAAwHQYDVR0OBBYEFHPuSNEInwRd50uMBw9FCPvMr4+GMEQGA1UdIwQ9MDuA
FOr5VYlY97b85meS4SMVKu9TGdoWoRikFjAUMRIwEAYDVQQDDAltYXRvb2EtY2GC
CQDRa54cGDtA8zATBgNVHSUEDDAKBggrBgEFBQcDAjALBgNVHQ8EBAMCB4AwDQYJ
KoZIhvcNAQELBQADggEBAHc1M4UGRyo+Pc+ook3UTwqy8PoKrWuIKC3O7N63Py0C
DZjSbYQcJWM2kTivGFHJ3GMNdxWuiGCYwKjiYJG3NNrSjxb3VDcrPyX9R52JYOKf
Ee/r2S2HgJ0CD454g5SYFINn3G6cBVRMYlULqreNcNMU4CXt+SHZRza6kgwzM9C1
rJfgk/0s3n+2A9Sx/bO2Z34O+80hGAVL1TLF/Pawo7yb+MZzh2+u8D/tt4zaY+rs
Izb8qvvunxJwAnRuK9TsTvC4CLGfIt+a/l3u7zbMcIvbJFDzAW35zDLjo1wodK/b
RWvnNaluOk+pOSv/YT7ok5+LnXdqMbtTZSqJueO3IU0=
-----END CERTIFICATE-----
