Certificate:
    Data:
        Version: 3 (0x2)
        Serial Number:
            e0:c3:62:6d:88:66:d7:b2:8f:85:e1:7a:0e:a8:29:36
    Signature Algorithm: sha256WithRSAEncryption
        Issuer: CN=matooa-ca
        Validity
            Not Before: Mar 12 15:10:41 2019 GMT
            Not After : Feb 24 15:10:41 2022 GMT
        Subject: C=Unknown, ST=Unknown, L=Unknown, O=Unknown, OU=Unknown, CN=matooa
        Subject Public Key Info:
            Public Key Algorithm: rsaEncryption
                Public-Key: (2048 bit)
                Modulus:
                    00:a2:c6:da:0a:9f:ae:4c:fd:14:8f:6a:93:5d:ba:
                    c4:3f:fc:84:fe:13:2f:db:fb:62:be:7c:71:56:90:
                    61:41:fb:3d:c0:96:39:78:35:da:9e:84:ec:4d:00:
                    2c:2b:d9:78:61:b7:8f:43:5c:ab:0d:dd:5f:8e:e2:
                    3d:64:06:a6:d6:5d:44:14:61:b0:06:29:8d:2e:02:
                    b2:97:dc:55:26:5c:21:10:e2:e3:75:1e:f7:13:f2:
                    9d:f3:88:2f:d4:fd:0b:21:63:e9:a5:c0:f7:dc:eb:
                    ca:43:4c:c6:08:88:69:05:d7:38:98:ec:8f:fa:09:
                    eb:13:89:19:bc:33:be:fb:e9:5a:a6:2f:66:99:04:
                    27:6d:9c:be:80:71:06:48:6b:5f:e6:c7:2e:94:e1:
                    1f:40:cb:0c:00:78:87:b5:a4:3b:70:3c:a0:0f:62:
                    d2:d3:d4:2e:4f:89:8c:57:71:b5:31:01:41:b1:a7:
                    49:a0:71:05:5b:9e:b6:b9:7b:6c:b5:c1:a3:40:70:
                    3f:02:cc:ad:59:21:be:61:8a:cd:45:04:f7:bd:e1:
                    10:87:dc:58:67:1e:eb:1c:92:08:d9:ca:3b:d0:4c:
                    7b:50:e4:f1:f9:26:4e:9a:6e:7a:54:93:cd:b7:1f:
                    6d:bc:df:ac:97:2f:e6:52:0e:a4:92:27:55:bc:eb:
                    87:73
                Exponent: 65537 (0x10001)
        X509v3 extensions:
            X509v3 Basic Constraints: 
                CA:FALSE
            X509v3 Subject Key Identifier: 
                DA:A3:56:03:FB:D1:DA:F4:FD:10:23:37:76:45:72:14:24:B3:6D:AB
            X509v3 Authority Key Identifier: 
                keyid:EA:F9:55:89:58:F7:B6:FC:E6:67:92:E1:23:15:2A:EF:53:19:DA:16
                DirName:/CN=matooa-ca
                serial:D1:6B:9E:1C:18:3B:40:F3

            X509v3 Extended Key Usage: 
                TLS Web Server Authentication
            X509v3 Key Usage: 
                Digital Signature, Key Encipherment
            X509v3 Subject Alternative Name: 
                DNS:matooa
    Signature Algorithm: sha256WithRSAEncryption
         7f:b4:15:62:f1:e6:ca:83:83:66:2e:8c:42:96:70:75:83:46:
         eb:89:6c:29:67:8f:08:58:66:7b:2b:74:5c:bb:97:c0:9b:31:
         f0:65:6e:bd:84:28:c9:f5:65:fc:dc:0a:48:9a:ec:aa:bb:10:
         8c:55:00:c4:c4:e7:41:0d:ae:76:c0:df:5d:3f:43:54:e6:89:
         7d:1f:97:ad:f4:dd:8f:f6:09:2f:f5:98:98:09:a4:52:e5:7a:
         55:54:94:1b:3e:36:3a:3c:a9:a9:fa:c3:d5:14:6b:93:c1:b5:
         4c:3c:15:2c:34:bd:ab:03:39:6d:15:11:0e:81:65:6d:50:c8:
         66:34:b6:40:0d:d9:fc:83:1b:0c:d5:93:f0:12:39:58:d2:cd:
         14:4f:c5:86:4b:9a:fd:57:5c:af:af:8b:07:27:11:b9:ea:40:
         7b:0e:35:71:39:25:12:53:f0:6e:13:19:34:9e:1d:34:a0:2b:
         81:fd:b7:a8:e6:8c:ca:00:54:3b:85:82:a2:1f:31:f3:60:13:
         c7:05:4f:89:94:8b:dd:9c:0d:32:c7:23:46:db:34:a6:ca:58:
         4e:21:0f:72:db:3b:ab:11:a3:cd:1e:b9:32:1c:aa:9e:1d:ab:
         d1:40:85:06:df:fd:cd:84:87:9d:cc:32:a5:9d:86:bb:01:15:
         65:3c:4d:77
-----BEGIN CERTIFICATE-----
MIIDszCCApugAwIBAgIRAODDYm2IZteyj4Xheg6oKTYwDQYJKoZIhvcNAQELBQAw
FDESMBAGA1UEAwwJbWF0b29hLWNhMB4XDTE5MDMxMjE1MTA0MVoXDTIyMDIyNDE1
MTA0MVowazEQMA4GA1UEBhMHVW5rbm93bjEQMA4GA1UECBMHVW5rbm93bjEQMA4G
A1UEBxMHVW5rbm93bjEQMA4GA1UEChMHVW5rbm93bjEQMA4GA1UECxMHVW5rbm93
bjEPMA0GA1UEAxMGbWF0b29hMIIBIjANBgkqhkiG9w0BAQEFAAOCAQ8AMIIBCgKC
AQEAosbaCp+uTP0Uj2qTXbrEP/yE/hMv2/tivnxxVpBhQfs9wJY5eDXanoTsTQAs
K9l4YbePQ1yrDd1fjuI9ZAam1l1EFGGwBimNLgKyl9xVJlwhEOLjdR73E/Kd84gv
1P0LIWPppcD33OvKQ0zGCIhpBdc4mOyP+gnrE4kZvDO+++lapi9mmQQnbZy+gHEG
SGtf5sculOEfQMsMAHiHtaQ7cDygD2LS09QuT4mMV3G1MQFBsadJoHEFW562uXts
tcGjQHA/AsytWSG+YYrNRQT3veEQh9xYZx7rHJII2co70Ex7UOTx+SZOmm56VJPN
tx9tvN+sly/mUg6kkidVvOuHcwIDAQABo4GoMIGlMAkGA1UdEwQCMAAwHQYDVR0O
BBYEFNqjVgP70dr0/RAjN3ZFchQks22rMEQGA1UdIwQ9MDuAFOr5VYlY97b85meS
4SMVKu9TGdoWoRikFjAUMRIwEAYDVQQDDAltYXRvb2EtY2GCCQDRa54cGDtA8zAT
BgNVHSUEDDAKBggrBgEFBQcDATALBgNVHQ8EBAMCBaAwEQYDVR0RBAowCIIGbWF0
b29hMA0GCSqGSIb3DQEBCwUAA4IBAQB/tBVi8ebKg4NmLoxClnB1g0briWwpZ48I
WGZ7K3Rcu5fAmzHwZW69hCjJ9WX83ApImuyquxCMVQDExOdBDa52wN9dP0NU5ol9
H5et9N2P9gkv9ZiYCaRS5XpVVJQbPjY6PKmp+sPVFGuTwbVMPBUsNL2rAzltFREO
gWVtUMhmNLZADdn8gxsM1ZPwEjlY0s0UT8WGS5r9V1yvr4sHJxG56kB7DjVxOSUS
U/BuExk0nh00oCuB/beo5ozKAFQ7hYKiHzHzYBPHBU+JlIvdnA0yxyNG2zSmylhO
IQ9y2zurEaPNHrkyHKqeHavRQIUG3/3NhIedzDKlnYa7ARVlPE13
-----END CERTIFICATE-----
